; Function Attrs: inlinehint nofree norecurse nosync nounwind memory(readwrite, inaccessiblemem: none) uwtable
define internal fastcc void @Vec_QueUpdate(ptr noundef readonly captures(none) %0, i32 noundef %1) unnamed_addr #11 {
  %3 = getelementptr i8, ptr %0, i64 24
  %.val.i = load ptr, ptr %3, align 8, !tbaa !85
  %.val.val.i = load ptr, ptr %.val.i, align 8, !tbaa !86
  %.not.i.i = icmp eq ptr %.val.val.i, null
  br i1 %.not.i.i, label %Vec_QuePrio.exit.i, label %Vec_QuePrio.exit.thread.i

Vec_QuePrio.exit.i:                               ; preds = %2
  %4 = sitofp i32 %1 to float
  %.pre.i = sext i32 %1 to i64
  %5 = getelementptr inbounds nuw i8, ptr %0, i64 16
  %6 = load ptr, ptr %5, align 8, !tbaa !88
  %7 = getelementptr inbounds i32, ptr %6, i64 %.pre.i
  %8 = load i32, ptr %7, align 4, !tbaa !39
  %9 = icmp sgt i32 %8, 1
  br i1 %9, label %.lr.ph.split.us.i, label %.thread21

.thread21:                                        ; preds = %Vec_QuePrio.exit.i
  %.phi.trans.insert.i22 = getelementptr inbounds nuw i8, ptr %0, i64 8
  %.pre52.i23 = load ptr, ptr %.phi.trans.insert.i22, align 8, !tbaa !84
  %10 = sext i32 %8 to i64
  %11 = getelementptr inbounds i32, ptr %.pre52.i23, i64 %10
  store i32 %1, ptr %11, align 4, !tbaa !39
  br label %Vec_QuePrio.exit.i9

Vec_QuePrio.exit.thread.i:                        ; preds = %2
  %12 = sext i32 %1 to i64
  %13 = getelementptr inbounds float, ptr %.val.val.i, i64 %12
  %14 = load float, ptr %13, align 4, !tbaa !87
  %15 = getelementptr inbounds nuw i8, ptr %0, i64 16
  %16 = load ptr, ptr %15, align 8, !tbaa !88
  %17 = getelementptr inbounds i32, ptr %16, i64 %12
  %18 = load i32, ptr %17, align 4, !tbaa !39
  %19 = icmp sgt i32 %18, 1
  br i1 %19, label %.lr.ph.split.i, label %66

.lr.ph.split.us.i:                                ; preds = %Vec_QuePrio.exit.i
  %.02631.i = lshr i32 %8, 1
  %20 = getelementptr inbounds nuw i8, ptr %0, i64 8
  %21 = load ptr, ptr %20, align 8, !tbaa !84
  %22 = zext nneg i32 %.02631.i to i64
  %23 = getelementptr inbounds nuw i32, ptr %21, i64 %22
  %24 = load i32, ptr %23, align 4, !tbaa !39
  %25 = sitofp i32 %24 to float
  %26 = fcmp ogt float %4, %25
  br i1 %26, label %.lr.ph48.i, label %.thread

.thread:                                          ; preds = %.lr.ph.split.us.i
  %27 = zext nneg i32 %8 to i64
  %28 = getelementptr inbounds nuw i32, ptr %21, i64 %27
  store i32 %1, ptr %28, align 4, !tbaa !39
  br label %Vec_QuePrio.exit.i9

Vec_QuePrio.exit30.us.i:                          ; preds = %.lr.ph48.i
  %.026.us.i = lshr i32 %.02634.us46.i, 1
  %29 = zext nneg i32 %.026.us.i to i64
  %30 = getelementptr inbounds nuw i32, ptr %21, i64 %29
  %31 = load i32, ptr %30, align 4, !tbaa !39
  %32 = sitofp i32 %31 to float
  %33 = fcmp ogt float %4, %32
  br i1 %33, label %.lr.ph48.i, label %Vec_QueMoveUp.exit.thread, !llvm.loop !148

.lr.ph48.i:                                       ; preds = %.lr.ph.split.us.i, %Vec_QuePrio.exit30.us.i
  %34 = phi i32 [ %31, %Vec_QuePrio.exit30.us.i ], [ %24, %.lr.ph.split.us.i ]
  %.02732.us47.i = phi i32 [ %.02634.us46.i, %Vec_QuePrio.exit30.us.i ], [ %8, %.lr.ph.split.us.i ]
  %.02634.us46.i = phi i32 [ %.026.us.i, %Vec_QuePrio.exit30.us.i ], [ %.02631.i, %.lr.ph.split.us.i ]
  %35 = zext nneg i32 %.02732.us47.i to i64
  %36 = getelementptr inbounds nuw i32, ptr %21, i64 %35
  store i32 %34, ptr %36, align 4, !tbaa !39
  %37 = sext i32 %34 to i64
  %38 = getelementptr inbounds i32, ptr %6, i64 %37
  store i32 %.02732.us47.i, ptr %38, align 4, !tbaa !39
  %39 = icmp samesign ugt i32 %.02634.us46.i, 1
  br i1 %39, label %Vec_QuePrio.exit30.us.i, label %Vec_QueMoveUp.exit.thread, !llvm.loop !148

.lr.ph.split.i:                                   ; preds = %Vec_QuePrio.exit.thread.i
  %.0263154.i = lshr i32 %18, 1
  %40 = getelementptr inbounds nuw i8, ptr %0, i64 8
  %41 = load ptr, ptr %40, align 8, !tbaa !84
  %42 = zext nneg i32 %.0263154.i to i64
  %43 = getelementptr inbounds nuw i32, ptr %41, i64 %42
  %44 = load i32, ptr %43, align 4, !tbaa !39
  %45 = sext i32 %44 to i64
  %46 = getelementptr inbounds float, ptr %.val.val.i, i64 %45
  %47 = load float, ptr %46, align 4, !tbaa !87
  %48 = fcmp ogt float %14, %47
  br i1 %48, label %.lr.ph43.i, label %.thread18

.thread18:                                        ; preds = %.lr.ph.split.i
  %49 = zext nneg i32 %18 to i64
  %50 = getelementptr inbounds nuw i32, ptr %41, i64 %49
  store i32 %1, ptr %50, align 4, !tbaa !39
  br label %Vec_QuePrio.exit.thread.i6

Vec_QuePrio.exit30.i:                             ; preds = %.lr.ph43.i
  %.026.i = lshr i32 %.0263441.i, 1
  %51 = zext nneg i32 %.026.i to i64
  %52 = getelementptr inbounds nuw i32, ptr %41, i64 %51
  %53 = load i32, ptr %52, align 4, !tbaa !39
  %54 = sext i32 %53 to i64
  %55 = getelementptr inbounds float, ptr %.val.val.i, i64 %54
  %56 = load float, ptr %55, align 4, !tbaa !87
  %57 = fcmp ogt float %14, %56
  br i1 %57, label %.lr.ph43.i, label %Vec_QueMoveUp.exit.thread, !llvm.loop !148

.lr.ph43.i:                                       ; preds = %.lr.ph.split.i, %Vec_QuePrio.exit30.i
  %58 = phi i32 [ %53, %Vec_QuePrio.exit30.i ], [ %44, %.lr.ph.split.i ]
  %.0273242.i = phi i32 [ %.0263441.i, %Vec_QuePrio.exit30.i ], [ %18, %.lr.ph.split.i ]
  %.0263441.i = phi i32 [ %.026.i, %Vec_QuePrio.exit30.i ], [ %.0263154.i, %.lr.ph.split.i ]
  %59 = zext nneg i32 %.0273242.i to i64
  %60 = getelementptr inbounds nuw i32, ptr %41, i64 %59
  store i32 %58, ptr %60, align 4, !tbaa !39
  %61 = sext i32 %58 to i64
  %62 = getelementptr inbounds i32, ptr %16, i64 %61
  store i32 %.0273242.i, ptr %62, align 4, !tbaa !39
  %63 = icmp samesign ugt i32 %.0263441.i, 1
  br i1 %63, label %Vec_QuePrio.exit30.i, label %Vec_QueMoveUp.exit.thread, !llvm.loop !148

Vec_QueMoveUp.exit.thread:                        ; preds = %.lr.ph43.i, %Vec_QuePrio.exit30.i, %.lr.ph48.i, %Vec_QuePrio.exit30.us.i
  %.ph = phi ptr [ %7, %Vec_QuePrio.exit30.us.i ], [ %7, %.lr.ph48.i ], [ %17, %Vec_QuePrio.exit30.i ], [ %17, %.lr.ph43.i ]
  %.ph12 = phi ptr [ %21, %Vec_QuePrio.exit30.us.i ], [ %21, %.lr.ph48.i ], [ %41, %Vec_QuePrio.exit30.i ], [ %41, %.lr.ph43.i ]
  %.027.lcssa.i.ph = phi i32 [ %.02634.us46.i, %Vec_QuePrio.exit30.us.i ], [ %.02634.us46.i, %.lr.ph48.i ], [ %.0263441.i, %Vec_QuePrio.exit30.i ], [ %.0263441.i, %.lr.ph43.i ]
  %64 = zext nneg i32 %.027.lcssa.i.ph to i64
  %65 = getelementptr inbounds nuw i32, ptr %.ph12, i64 %64
  store i32 %1, ptr %65, align 4, !tbaa !39
  store i32 %.027.lcssa.i.ph, ptr %.ph, align 4, !tbaa !39
  br label %134

66:                                               ; preds = %Vec_QuePrio.exit.thread.i
  %.phi.trans.insert.i = getelementptr inbounds nuw i8, ptr %0, i64 8
  %.pre52.i = load ptr, ptr %.phi.trans.insert.i, align 8, !tbaa !84
  %67 = sext i32 %18 to i64
  %68 = getelementptr inbounds i32, ptr %.pre52.i, i64 %67
  store i32 %1, ptr %68, align 4, !tbaa !39
  br label %Vec_QuePrio.exit.thread.i6

Vec_QuePrio.exit.i9:                              ; preds = %.thread21, %.thread
  %69 = phi ptr [ %.pre52.i23, %.thread21 ], [ %21, %.thread ]
  store i32 %8, ptr %7, align 4, !tbaa !39
  %70 = getelementptr inbounds nuw i8, ptr %0, i64 4
  %.047.i = shl i32 %8, 1
  %71 = load i32, ptr %70, align 4, !tbaa !81
  %72 = icmp slt i32 %.047.i, %71
  br i1 %72, label %.lr.ph.split.us.i11, label %Vec_QueMoveDown.exit

Vec_QuePrio.exit.thread.i6:                       ; preds = %66, %.thread18
  %73 = phi ptr [ %.pre52.i, %66 ], [ %41, %.thread18 ]
  store i32 %18, ptr %17, align 4, !tbaa !39
  %74 = getelementptr inbounds nuw i8, ptr %0, i64 4
  %.04760.i = shl i32 %18, 1
  %75 = load i32, ptr %74, align 4, !tbaa !81
  %76 = icmp slt i32 %.04760.i, %75
  br i1 %76, label %.lr.ph.split.i8, label %Vec_QueMoveDown.exit

.lr.ph.split.us.i11:                              ; preds = %Vec_QuePrio.exit.i9, %94
  %77 = phi i32 [ %99, %94 ], [ %71, %Vec_QuePrio.exit.i9 ]
  %.049.us.i = phi i32 [ %.0.us.i, %94 ], [ %.047.i, %Vec_QuePrio.exit.i9 ]
  %.03548.us.i = phi i32 [ %.1.us.i, %94 ], [ %8, %Vec_QuePrio.exit.i9 ]
  %78 = or disjoint i32 %.049.us.i, 1
  %79 = icmp slt i32 %78, %77
  %80 = sext i32 %.049.us.i to i64
  br i1 %79, label %Vec_QuePrio.exit44.us.i, label %Vec_QuePrio.exit46.us.i

Vec_QuePrio.exit44.us.i:                          ; preds = %.lr.ph.split.us.i11
  %81 = getelementptr inbounds i32, ptr %69, i64 %80
  %82 = load i32, ptr %81, align 4, !tbaa !39
  %83 = sitofp i32 %82 to float
  %84 = sext i32 %78 to i64
  %85 = getelementptr inbounds i32, ptr %69, i64 %84
  %86 = load i32, ptr %85, align 4, !tbaa !39
  %87 = sitofp i32 %86 to float
  %88 = fcmp olt float %83, %87
  br i1 %88, label %89, label %Vec_QuePrio.exit46.us.i

89:                                               ; preds = %Vec_QuePrio.exit44.us.i
  br label %Vec_QuePrio.exit46.us.i

Vec_QuePrio.exit46.us.i:                          ; preds = %89, %Vec_QuePrio.exit44.us.i, %.lr.ph.split.us.i11
  %.pre-phi56.i = phi i64 [ %84, %89 ], [ %80, %Vec_QuePrio.exit44.us.i ], [ %80, %.lr.ph.split.us.i11 ]
  %.1.us.i = phi i32 [ %78, %89 ], [ %.049.us.i, %Vec_QuePrio.exit44.us.i ], [ %.049.us.i, %.lr.ph.split.us.i11 ]
  %90 = getelementptr inbounds i32, ptr %69, i64 %.pre-phi56.i
  %91 = load i32, ptr %90, align 4, !tbaa !39
  %92 = sitofp i32 %91 to float
  %93 = fcmp ult float %4, %92
  br i1 %93, label %94, label %Vec_QueMoveDown.exit

94:                                               ; preds = %Vec_QuePrio.exit46.us.i
  %95 = sext i32 %.03548.us.i to i64
  %96 = getelementptr inbounds i32, ptr %69, i64 %95
  store i32 %91, ptr %96, align 4, !tbaa !39
  %97 = sext i32 %91 to i64
  %98 = getelementptr inbounds i32, ptr %6, i64 %97
  store i32 %.03548.us.i, ptr %98, align 4, !tbaa !39
  %.0.us.i = shl i32 %.1.us.i, 1
  %99 = load i32, ptr %70, align 4, !tbaa !81
  %100 = icmp slt i32 %.0.us.i, %99
  br i1 %100, label %.lr.ph.split.us.i11, label %Vec_QueMoveDown.exit, !llvm.loop !89

.lr.ph.split.i8:                                  ; preds = %Vec_QuePrio.exit.thread.i6, %124
  %101 = phi i32 [ %128, %124 ], [ %75, %Vec_QuePrio.exit.thread.i6 ]
  %.049.i = phi i32 [ %.0.i, %124 ], [ %.04760.i, %Vec_QuePrio.exit.thread.i6 ]
  %.03548.i = phi i32 [ %.1.i, %124 ], [ %18, %Vec_QuePrio.exit.thread.i6 ]
  %102 = or disjoint i32 %.049.i, 1
  %103 = icmp slt i32 %102, %101
  %104 = sext i32 %.049.i to i64
  br i1 %103, label %Vec_QuePrio.exit44.i, label %Vec_QuePrio.exit46.i

Vec_QuePrio.exit44.i:                             ; preds = %.lr.ph.split.i8
  %105 = getelementptr inbounds i32, ptr %73, i64 %104
  %106 = load i32, ptr %105, align 4, !tbaa !39
  %107 = sext i32 %106 to i64
  %108 = getelementptr inbounds float, ptr %.val.val.i, i64 %107
  %109 = load float, ptr %108, align 4, !tbaa !87
  %110 = sext i32 %102 to i64
  %111 = getelementptr inbounds i32, ptr %73, i64 %110
  %112 = load i32, ptr %111, align 4, !tbaa !39
  %113 = sext i32 %112 to i64
  %114 = getelementptr inbounds float, ptr %.val.val.i, i64 %113
  %115 = load float, ptr %114, align 4, !tbaa !87
  %116 = fcmp olt float %109, %115
  br i1 %116, label %117, label %Vec_QuePrio.exit46.i

117:                                              ; preds = %Vec_QuePrio.exit44.i
  br label %Vec_QuePrio.exit46.i

Vec_QuePrio.exit46.i:                             ; preds = %117, %Vec_QuePrio.exit44.i, %.lr.ph.split.i8
  %.pre-phi58.i = phi i64 [ %110, %117 ], [ %104, %Vec_QuePrio.exit44.i ], [ %104, %.lr.ph.split.i8 ]
  %.1.i = phi i32 [ %102, %117 ], [ %.049.i, %Vec_QuePrio.exit44.i ], [ %.049.i, %.lr.ph.split.i8 ]
  %118 = getelementptr inbounds i32, ptr %73, i64 %.pre-phi58.i
  %119 = load i32, ptr %118, align 4, !tbaa !39
  %120 = sext i32 %119 to i64
  %121 = getelementptr inbounds float, ptr %.val.val.i, i64 %120
  %122 = load float, ptr %121, align 4, !tbaa !87
  %123 = fcmp ult float %14, %122
  br i1 %123, label %124, label %Vec_QueMoveDown.exit

124:                                              ; preds = %Vec_QuePrio.exit46.i
  %125 = sext i32 %.03548.i to i64
  %126 = getelementptr inbounds i32, ptr %73, i64 %125
  store i32 %119, ptr %126, align 4, !tbaa !39
  %127 = getelementptr inbounds i32, ptr %16, i64 %120
  store i32 %.03548.i, ptr %127, align 4, !tbaa !39
  %.0.i = shl i32 %.1.i, 1
  %128 = load i32, ptr %74, align 4, !tbaa !81
  %129 = icmp slt i32 %.0.i, %128
  br i1 %129, label %.lr.ph.split.i8, label %Vec_QueMoveDown.exit, !llvm.loop !89

Vec_QueMoveDown.exit:                             ; preds = %Vec_QuePrio.exit46.i, %124, %Vec_QuePrio.exit46.us.i, %94, %Vec_QuePrio.exit.i9, %Vec_QuePrio.exit.thread.i6
  %130 = phi ptr [ %17, %Vec_QuePrio.exit.thread.i6 ], [ %7, %Vec_QuePrio.exit.i9 ], [ %7, %94 ], [ %7, %Vec_QuePrio.exit46.us.i ], [ %17, %124 ], [ %17, %Vec_QuePrio.exit46.i ]
  %131 = phi ptr [ %73, %Vec_QuePrio.exit.thread.i6 ], [ %69, %Vec_QuePrio.exit.i9 ], [ %69, %94 ], [ %69, %Vec_QuePrio.exit46.us.i ], [ %73, %124 ], [ %73, %Vec_QuePrio.exit46.i ]
  %.035.lcssa.i = phi i32 [ %18, %Vec_QuePrio.exit.thread.i6 ], [ %8, %Vec_QuePrio.exit.i9 ], [ %.03548.us.i, %Vec_QuePrio.exit46.us.i ], [ %.1.us.i, %94 ], [ %.03548.i, %Vec_QuePrio.exit46.i ], [ %.1.i, %124 ]
  %132 = sext i32 %.035.lcssa.i to i64
  %133 = getelementptr inbounds i32, ptr %131, i64 %132
  store i32 %1, ptr %133, align 4, !tbaa !39
  store i32 %.035.lcssa.i, ptr %130, align 4, !tbaa !39
  br label %134

134:                                              ; preds = %Vec_QueMoveUp.exit.thread, %Vec_QueMoveDown.exit
  ret void
}